target datalayout = "e-m:e-p270:32:32-p271:32:32-p272:64:64-i64:64-i128:128-f80:128-n8:16:32:64-S128"
target triple = "x86_64-pc-linux-gnu"

%struct.PJconsts = type { ptr, ptr, ptr, ptr, ptr, ptr, ptr, ptr, ptr, ptr, ptr, ptr, i32, ptr, ptr, ptr, ptr, ptr, ptr, ptr, ptr, double, double, double, double, double, double, double, double, double, double, double, double, double, double, double, double, double, double, double, double, double, double, i32, i32, i32, i32, i32, i32, i32, i32, i32, i32, i32, ptr, ptr, ptr, ptr, ptr, ptr, double, double, double, double, double, double, double, double, double, double, double, i32, [7 x double], i32, ptr, ptr, double, double, i32, [4 x i8], %"class.std::shared_ptr", i8, double, i8, %"class.std::__cxx11::basic_string", %"class.std::__cxx11::basic_string", %"class.std::__cxx11::basic_string", i8, %"class.std::vector", i32, %"class.std::vector.3", i32, i8, i8, i8, ptr }
%"class.std::shared_ptr" = type { %"class.std::__shared_ptr" }
%"class.std::__shared_ptr" = type { ptr, %"class.std::__shared_count" }
%"class.std::__shared_count" = type { ptr }
%"class.std::__cxx11::basic_string" = type { %"struct.std::__cxx11::basic_string<char>::_Alloc_hider", i64, %union.anon }
%"struct.std::__cxx11::basic_string<char>::_Alloc_hider" = type { ptr }
%union.anon = type { i64, [8 x i8] }
%"class.std::vector" = type { %"struct.std::_Vector_base" }
%"struct.std::_Vector_base" = type { %"struct.std::_Vector_base<osgeo::proj::operation::GridDescription, std::allocator<osgeo::proj::operation::GridDescription>>::_Vector_impl" }
%"struct.std::_Vector_base<osgeo::proj::operation::GridDescription, std::allocator<osgeo::proj::operation::GridDescription>>::_Vector_impl" = type { %"struct.std::_Vector_base<osgeo::proj::operation::GridDescription, std::allocator<osgeo::proj::operation::GridDescription>>::_Vector_impl_data" }
%"struct.std::_Vector_base<osgeo::proj::operation::GridDescription, std::allocator<osgeo::proj::operation::GridDescription>>::_Vector_impl_data" = type { ptr, ptr, ptr }
%"class.std::vector.3" = type { %"struct.std::_Vector_base.4" }
%"struct.std::_Vector_base.4" = type { %"struct.std::_Vector_base<PJCoordOperation, std::allocator<PJCoordOperation>>::_Vector_impl" }
%"struct.std::_Vector_base<PJCoordOperation, std::allocator<PJCoordOperation>>::_Vector_impl" = type { %"struct.std::_Vector_base<PJCoordOperation, std::allocator<PJCoordOperation>>::_Vector_impl_data" }
%"struct.std::_Vector_base<PJCoordOperation, std::allocator<PJCoordOperation>>::_Vector_impl_data" = type { ptr, ptr, ptr }
%"struct.(anonymous namespace)::pj_axisswap_data" = type { [4 x i32], [4 x i32] }
%union.PJ_COORD = type { [4 x double] }
%struct.PJ_XYZ = type { double, double, double }
%struct.PJ_LPZ = type { double, double, double }

; Function Attrs: mustprogress uwtable
define internal void @_ZL22pj_axisswap_forward_3d6PJ_LPZP8PJconsts(ptr dead_on_unwind noalias writable sret(%struct.PJ_XYZ) align 8 %0, ptr noundef byval(%struct.PJ_LPZ) align 8 %1, ptr noundef %2) #0 {
  %4 = alloca ptr, align 8
  %5 = alloca ptr, align 8
  %6 = alloca i32, align 4
  %7 = alloca %union.PJ_COORD, align 8
  %8 = alloca %union.PJ_COORD, align 8
  %9 = alloca %union.PJ_COORD, align 8
  store ptr %2, ptr %4, align 8, !tbaa !3
  call void @llvm.lifetime.start.p0(i64 8, ptr %5) #11
  %10 = load ptr, ptr %4, align 8, !tbaa !3
  %11 = getelementptr inbounds nuw %struct.PJconsts, ptr %10, i32 0, i32 11
  %12 = load ptr, ptr %11, align 8, !tbaa !44
  store ptr %12, ptr %5, align 8, !tbaa !41
  call void @llvm.lifetime.start.p0(i64 4, ptr %6) #11
  call void @llvm.lifetime.start.p0(i64 32, ptr %7) #11
  call void @llvm.lifetime.start.p0(i64 32, ptr %8) #11
  %13 = getelementptr inbounds nuw %struct.PJ_LPZ, ptr %1, i32 0, i32 0
  %14 = load double, ptr %13, align 8, !tbaa !72
  %15 = getelementptr inbounds [4 x double], ptr %8, i64 0, i64 0
  store double %14, ptr %15, align 8, !tbaa !49
  %16 = getelementptr inbounds nuw %struct.PJ_LPZ, ptr %1, i32 0, i32 1
  %17 = load double, ptr %16, align 8, !tbaa !74
  %18 = getelementptr inbounds [4 x double], ptr %8, i64 0, i64 1
  store double %17, ptr %18, align 8, !tbaa !49
  %19 = getelementptr inbounds nuw %struct.PJ_LPZ, ptr %1, i32 0, i32 2
  %20 = load double, ptr %19, align 8, !tbaa !75
  %21 = getelementptr inbounds [4 x double], ptr %8, i64 0, i64 2
  store double %20, ptr %21, align 8, !tbaa !49
  call void @llvm.lifetime.start.p0(i64 32, ptr %9) #11
  call void @_Z16proj_coord_errorv(ptr dead_on_unwind writable sret(%union.PJ_COORD) align 8 %9)
  call void @llvm.memcpy.p0.p0.i64(ptr align 8 %7, ptr align 8 %9, i64 32, i1 false), !tbaa.struct !70
  call void @llvm.lifetime.end.p0(i64 32, ptr %9) #11
  store i32 0, ptr %6, align 4, !tbaa !43
  br label %22

22:                                               ; preds = %46, %3
  %23 = load i32, ptr %6, align 4, !tbaa !43
  %24 = icmp ult i32 %23, 3
  br i1 %24, label %25, label %49

25:                                               ; preds = %22
  %26 = load ptr, ptr %5, align 8, !tbaa !41
  %27 = getelementptr inbounds nuw %"struct.(anonymous namespace)::pj_axisswap_data", ptr %26, i32 0, i32 0
  %28 = load i32, ptr %6, align 4, !tbaa !43
  %29 = zext i32 %28 to i64
  %30 = getelementptr inbounds nuw [4 x i32], ptr %27, i64 0, i64 %29
  %31 = load i32, ptr %30, align 4, !tbaa !43
  %32 = zext i32 %31 to i64
  %33 = getelementptr inbounds nuw [4 x double], ptr %8, i64 0, i64 %32
  %34 = load double, ptr %33, align 8, !tbaa !49
  %35 = load ptr, ptr %5, align 8, !tbaa !41
  %36 = getelementptr inbounds nuw %"struct.(anonymous namespace)::pj_axisswap_data", ptr %35, i32 0, i32 1
  %37 = load i32, ptr %6, align 4, !tbaa !43
  %38 = zext i32 %37 to i64
  %39 = getelementptr inbounds nuw [4 x i32], ptr %36, i64 0, i64 %38
  %40 = load i32, ptr %39, align 4, !tbaa !43
  %41 = sitofp i32 %40 to double
  %42 = fmul double %34, %41
  %43 = load i32, ptr %6, align 4, !tbaa !43
  %44 = zext i32 %43 to i64
  %45 = getelementptr inbounds nuw [4 x double], ptr %7, i64 0, i64 %44
  store double %42, ptr %45, align 8, !tbaa !49
  br label %46

46:                                               ; preds = %25
  %47 = load i32, ptr %6, align 4, !tbaa !43
  %48 = add i32 %47, 1
  store i32 %48, ptr %6, align 4, !tbaa !43
  br label %22, !llvm.loop !76

49:                                               ; preds = %22
  call void @llvm.memcpy.p0.p0.i64(ptr align 8 %0, ptr align 8 %7, i64 24, i1 false), !tbaa.struct !77
  call void @llvm.lifetime.end.p0(i64 32, ptr %8) #11
  call void @llvm.lifetime.end.p0(i64 32, ptr %7) #11
  call void @llvm.lifetime.end.p0(i64 4, ptr %6) #11
  call void @llvm.lifetime.end.p0(i64 8, ptr %5) #11
  ret void
}